; Function Attrs: mustprogress nofree norecurse nosync nounwind willreturn memory(read, inaccessiblemem: none) uwtable
define nonnull ptr @l_Lake_Toml_RBDict_size___rarg(ptr noundef readonly captures(none) %0) local_unnamed_addr #2 {
  %2 = getelementptr inbounds nuw i8, ptr %0, i64 8
  %3 = load ptr, ptr %2, align 8, !tbaa !4
  %4 = getelementptr i8, ptr %3, i64 8
  %.val = load i64, ptr %4, align 8, !tbaa !14
  %5 = shl i64 %.val, 1
  %6 = or disjoint i64 %5, 1
  %7 = inttoptr i64 %6 to ptr
  ret ptr %7
}